; Function Attrs: mustprogress uwtable
define internal fastcc noundef range(i32 0, 3) i32 @_ZN7testing8internalL22PrintAsStringLiteralToEDiPSo(i32 noundef zeroext %0, ptr noundef %1) unnamed_addr #3 {
  %3 = alloca i8, align 1
  switch i32 %0, label %26 [
    i32 39, label %4
    i32 34, label %6
    i32 0, label %8
    i32 11, label %24
    i32 92, label %10
    i32 7, label %12
    i32 8, label %14
    i32 12, label %16
    i32 10, label %18
    i32 13, label %20
    i32 9, label %22
  ]

4:                                                ; preds = %2
  %5 = tail call noundef nonnull align 8 dereferenceable(8) ptr @_ZSt16__ostream_insertIcSt11char_traitsIcEERSt13basic_ostreamIT_T0_ES6_PKS3_l(ptr noundef nonnull align 8 dereferenceable(8) %1, ptr noundef nonnull @.str.151, i64 noundef 1)
  br label %_ZN7testing8internalL20PrintAsCharLiteralToIDiEENS0_10CharFormatET_PSo.exit

6:                                                ; preds = %2
  %7 = tail call noundef nonnull align 8 dereferenceable(8) ptr @_ZSt16__ostream_insertIcSt11char_traitsIcEERSt13basic_ostreamIT_T0_ES6_PKS3_l(ptr noundef nonnull align 8 dereferenceable(8) %1, ptr noundef nonnull @.str.535, i64 noundef 2)
  br label %_ZN7testing8internalL20PrintAsCharLiteralToIDiEENS0_10CharFormatET_PSo.exit

8:                                                ; preds = %2
  %9 = tail call noundef nonnull align 8 dereferenceable(8) ptr @_ZSt16__ostream_insertIcSt11char_traitsIcEERSt13basic_ostreamIT_T0_ES6_PKS3_l(ptr noundef nonnull align 8 dereferenceable(8) %1, ptr noundef nonnull @.str.190, i64 noundef 2)
  br label %_ZN7testing8internalL20PrintAsCharLiteralToIDiEENS0_10CharFormatET_PSo.exit

10:                                               ; preds = %2
  %11 = tail call noundef nonnull align 8 dereferenceable(8) ptr @_ZSt16__ostream_insertIcSt11char_traitsIcEERSt13basic_ostreamIT_T0_ES6_PKS3_l(ptr noundef nonnull align 8 dereferenceable(8) %1, ptr noundef nonnull @.str.527, i64 noundef 2)
  br label %_ZN7testing8internalL20PrintAsCharLiteralToIDiEENS0_10CharFormatET_PSo.exit

12:                                               ; preds = %2
  %13 = tail call noundef nonnull align 8 dereferenceable(8) ptr @_ZSt16__ostream_insertIcSt11char_traitsIcEERSt13basic_ostreamIT_T0_ES6_PKS3_l(ptr noundef nonnull align 8 dereferenceable(8) %1, ptr noundef nonnull @.str.528, i64 noundef 2)
  br label %_ZN7testing8internalL20PrintAsCharLiteralToIDiEENS0_10CharFormatET_PSo.exit

14:                                               ; preds = %2
  %15 = tail call noundef nonnull align 8 dereferenceable(8) ptr @_ZSt16__ostream_insertIcSt11char_traitsIcEERSt13basic_ostreamIT_T0_ES6_PKS3_l(ptr noundef nonnull align 8 dereferenceable(8) %1, ptr noundef nonnull @.str.338, i64 noundef 2)
  br label %_ZN7testing8internalL20PrintAsCharLiteralToIDiEENS0_10CharFormatET_PSo.exit

16:                                               ; preds = %2
  %17 = tail call noundef nonnull align 8 dereferenceable(8) ptr @_ZSt16__ostream_insertIcSt11char_traitsIcEERSt13basic_ostreamIT_T0_ES6_PKS3_l(ptr noundef nonnull align 8 dereferenceable(8) %1, ptr noundef nonnull @.str.341, i64 noundef 2)
  br label %_ZN7testing8internalL20PrintAsCharLiteralToIDiEENS0_10CharFormatET_PSo.exit

18:                                               ; preds = %2
  %19 = tail call noundef nonnull align 8 dereferenceable(8) ptr @_ZSt16__ostream_insertIcSt11char_traitsIcEERSt13basic_ostreamIT_T0_ES6_PKS3_l(ptr noundef nonnull align 8 dereferenceable(8) %1, ptr noundef nonnull @.str.340, i64 noundef 2)
  br label %_ZN7testing8internalL20PrintAsCharLiteralToIDiEENS0_10CharFormatET_PSo.exit

20:                                               ; preds = %2
  %21 = tail call noundef nonnull align 8 dereferenceable(8) ptr @_ZSt16__ostream_insertIcSt11char_traitsIcEERSt13basic_ostreamIT_T0_ES6_PKS3_l(ptr noundef nonnull align 8 dereferenceable(8) %1, ptr noundef nonnull @.str.342, i64 noundef 2)
  br label %_ZN7testing8internalL20PrintAsCharLiteralToIDiEENS0_10CharFormatET_PSo.exit

22:                                               ; preds = %2
  %23 = tail call noundef nonnull align 8 dereferenceable(8) ptr @_ZSt16__ostream_insertIcSt11char_traitsIcEERSt13basic_ostreamIT_T0_ES6_PKS3_l(ptr noundef nonnull align 8 dereferenceable(8) %1, ptr noundef nonnull @.str.339, i64 noundef 2)
  br label %_ZN7testing8internalL20PrintAsCharLiteralToIDiEENS0_10CharFormatET_PSo.exit

24:                                               ; preds = %2
  %25 = tail call noundef nonnull align 8 dereferenceable(8) ptr @_ZSt16__ostream_insertIcSt11char_traitsIcEERSt13basic_ostreamIT_T0_ES6_PKS3_l(ptr noundef nonnull align 8 dereferenceable(8) %1, ptr noundef nonnull @.str.529, i64 noundef 2)
  br label %_ZN7testing8internalL20PrintAsCharLiteralToIDiEENS0_10CharFormatET_PSo.exit

26:                                               ; preds = %2
  %27 = add i32 %0, -32
  %28 = icmp ult i32 %27, 95
  br i1 %28, label %29, label %41

29:                                               ; preds = %26
  %30 = trunc nuw i32 %0 to i8
  call void @llvm.lifetime.start.p0(i64 1, ptr nonnull %3)
  store i8 %30, ptr %3, align 1, !tbaa !27
  %31 = load ptr, ptr %1, align 8, !tbaa !32
  %32 = getelementptr i8, ptr %31, i64 -24
  %33 = load i64, ptr %32, align 8
  %34 = getelementptr inbounds i8, ptr %1, i64 %33
  %35 = getelementptr inbounds nuw i8, ptr %34, i64 16
  %36 = load i64, ptr %35, align 8, !tbaa !902
  %.not.i.i = icmp eq i64 %36, 0
  br i1 %.not.i.i, label %39, label %37

37:                                               ; preds = %29
  %38 = call noundef nonnull align 8 dereferenceable(8) ptr @_ZSt16__ostream_insertIcSt11char_traitsIcEERSt13basic_ostreamIT_T0_ES6_PKS3_l(ptr noundef nonnull align 8 dereferenceable(8) %1, ptr noundef nonnull %3, i64 noundef 1)
  br label %_ZStlsISt11char_traitsIcEERSt13basic_ostreamIcT_ES5_c.exit.i

39:                                               ; preds = %29
  %40 = tail call noundef nonnull align 8 dereferenceable(8) ptr @_ZNSo3putEc(ptr noundef nonnull align 8 dereferenceable(8) %1, i8 noundef signext %30)
  br label %_ZStlsISt11char_traitsIcEERSt13basic_ostreamIcT_ES5_c.exit.i

_ZStlsISt11char_traitsIcEERSt13basic_ostreamIcT_ES5_c.exit.i: ; preds = %39, %37
  call void @llvm.lifetime.end.p0(i64 1, ptr nonnull %3)
  br label %_ZN7testing8internalL20PrintAsCharLiteralToIDiEENS0_10CharFormatET_PSo.exit

41:                                               ; preds = %26
  %42 = load ptr, ptr %1, align 8, !tbaa !32
  %43 = getelementptr i8, ptr %42, i64 -24
  %44 = load i64, ptr %43, align 8
  %45 = getelementptr inbounds i8, ptr %1, i64 %44
  %46 = getelementptr inbounds nuw i8, ptr %45, i64 24
  %47 = load i32, ptr %46, align 8, !tbaa !910
  %48 = tail call noundef nonnull align 8 dereferenceable(8) ptr @_ZSt16__ostream_insertIcSt11char_traitsIcEERSt13basic_ostreamIT_T0_ES6_PKS3_l(ptr noundef nonnull align 8 dereferenceable(8) %1, ptr noundef nonnull @.str.530, i64 noundef 2)
  %49 = load ptr, ptr %1, align 8, !tbaa !32
  %50 = getelementptr i8, ptr %49, i64 -24
  %51 = load i64, ptr %50, align 8
  %52 = getelementptr inbounds i8, ptr %1, i64 %51
  %53 = getelementptr inbounds nuw i8, ptr %52, i64 24
  %54 = load i32, ptr %53, align 8, !tbaa !910
  %55 = and i32 %54, -75
  %56 = or disjoint i32 %55, 8
  store i32 %56, ptr %53, align 4, !tbaa !911
  %57 = load i64, ptr %50, align 8
  %58 = getelementptr inbounds i8, ptr %1, i64 %57
  %59 = getelementptr inbounds nuw i8, ptr %58, i64 24
  %60 = load i32, ptr %59, align 8, !tbaa !910
  %61 = or i32 %60, 16384
  store i32 %61, ptr %59, align 4, !tbaa !911
  %62 = tail call noundef nonnull align 8 dereferenceable(8) ptr @_ZNSolsEi(ptr noundef nonnull align 8 dereferenceable(8) %1, i32 noundef %0)
  %63 = load ptr, ptr %1, align 8, !tbaa !32
  %64 = getelementptr i8, ptr %63, i64 -24
  %65 = load i64, ptr %64, align 8
  %66 = getelementptr inbounds i8, ptr %1, i64 %65
  %67 = getelementptr inbounds nuw i8, ptr %66, i64 24
  store i32 %47, ptr %67, align 8, !tbaa !910
  br label %_ZN7testing8internalL20PrintAsCharLiteralToIDiEENS0_10CharFormatET_PSo.exit

_ZN7testing8internalL20PrintAsCharLiteralToIDiEENS0_10CharFormatET_PSo.exit: ; preds = %41, %_ZStlsISt11char_traitsIcEERSt13basic_ostreamIcT_ES5_c.exit.i, %24, %22, %20, %18, %16, %14, %12, %10, %8, %6, %4
  %.0 = phi i32 [ 2, %6 ], [ 0, %4 ], [ 0, %_ZStlsISt11char_traitsIcEERSt13basic_ostreamIcT_ES5_c.exit.i ], [ 1, %41 ], [ 2, %24 ], [ 2, %22 ], [ 2, %20 ], [ 2, %18 ], [ 2, %16 ], [ 2, %14 ], [ 2, %12 ], [ 2, %10 ], [ 2, %8 ]
  ret i32 %.0
}